; Function Attrs: nounwind uwtable
define zeroext range(i8 0, 2) i8 @l_Array_anyMUnsafe_any___at_Lean_Elab_Term_expandMatchAlts_x3f___spec__1(ptr noundef readonly captures(none) %0, i64 noundef %1, i64 noundef %2) local_unnamed_addr #0 {
  %.not24 = icmp eq i64 %1, %2
  br i1 %.not24, label %lean_array_uget.exit._crit_edge, label %.lr.ph

.lr.ph:                                           ; preds = %3
  %4 = getelementptr inbounds nuw i8, ptr %0, i64 24
  br label %7

5:                                                ; preds = %lean_array_uget.exit
  %6 = add i64 %.01325, 1
  %.not = icmp eq i64 %6, %2
  br i1 %.not, label %lean_array_uget.exit._crit_edge, label %7

7:                                                ; preds = %.lr.ph, %5
  %.01325 = phi i64 [ %1, %.lr.ph ], [ %6, %5 ]
  %8 = getelementptr inbounds nuw [0 x ptr], ptr %4, i64 0, i64 %.01325
  %9 = load ptr, ptr %8, align 8, !tbaa !12
  %10 = ptrtoint ptr %9 to i64
  %11 = and i64 %10, 1
  %.not.i = icmp eq i64 %11, 0
  br i1 %.not.i, label %12, label %lean_array_uget.exit

12:                                               ; preds = %7
  %.val.i.i = load i32, ptr %9, align 4, !tbaa !4
  %13 = icmp sgt i32 %.val.i.i, 0
  br i1 %13, label %14, label %16, !prof !9

14:                                               ; preds = %12
  %15 = add nuw i32 %.val.i.i, 1
  store i32 %15, ptr %9, align 4, !tbaa !4
  br label %lean_array_uget.exit

16:                                               ; preds = %12
  %.not.i.i = icmp eq i32 %.val.i.i, 0
  br i1 %.not.i.i, label %lean_array_uget.exit, label %17

17:                                               ; preds = %16
  tail call void @lean_inc_ref_cold(ptr noundef nonnull %9) #5
  br label %lean_array_uget.exit

lean_array_uget.exit:                             ; preds = %7, %14, %16, %17
  %18 = tail call zeroext i8 @l_Lean_Elab_Term_shouldExpandMatchAlt(ptr noundef %9)
  %19 = icmp eq i8 %18, 0
  br i1 %19, label %5, label %lean_array_uget.exit._crit_edge

lean_array_uget.exit._crit_edge:                  ; preds = %5, %lean_array_uget.exit, %3
  %.2.ph = phi i8 [ 0, %3 ], [ 1, %lean_array_uget.exit ], [ 0, %5 ]
  ret i8 %.2.ph
}